; Function Attrs: nounwind uwtable
define hidden ptr @_mi_os_alloc_aligned_at_offset(i64 noundef %size, i64 noundef %alignment, i64 noundef %offset, i1 noundef zeroext %commit, i1 noundef zeroext %allow_large, ptr noundef writeonly captures(none) initializes((0, 24)) %memid, ptr noundef readnone captures(none) %tld_stats) local_unnamed_addr #1 {
entry:
  %needs_recommit.i = alloca i8, align 1
  tail call void @llvm.memset.p0.i64(ptr noundef nonnull align 8 dereferenceable(24) %memid, i8 0, i64 24, i1 false)
  %cmp = icmp ugt i64 %offset, 33554432
  br i1 %cmp, label %return, label %if.end

if.end:                                           ; preds = %entry
  %cmp2 = icmp eq i64 %offset, 0
  br i1 %cmp2, label %if.then3, label %if.else

if.then3:                                         ; preds = %if.end
  %call = tail call ptr @_mi_os_alloc_aligned(i64 noundef %size, i64 noundef %alignment, i1 noundef zeroext %commit, i1 noundef zeroext %allow_large, ptr noundef nonnull %memid, ptr poison) #8
  br label %return

if.else:                                          ; preds = %if.end
  %sub.i = add i64 %alignment, -1
  %0 = tail call range(i64 0, 65) i64 @llvm.ctpop.i64(i64 %alignment)
  %cmp.i = icmp samesign ult i64 %0, 2
  %add.i = add i64 %sub.i, %offset
  br i1 %cmp.i, label %if.then.i, label %if.else.i

if.then.i:                                        ; preds = %if.else
  %not.i = sub i64 0, %alignment
  %and1.i = and i64 %add.i, %not.i
  br label %_mi_align_up.exit

if.else.i:                                        ; preds = %if.else
  %1 = urem i64 %add.i, %alignment
  %mul.i = sub nuw i64 %add.i, %1
  br label %_mi_align_up.exit

_mi_align_up.exit:                                ; preds = %if.then.i, %if.else.i
  %retval.0.i = phi i64 [ %and1.i, %if.then.i ], [ %mul.i, %if.else.i ]
  %sub = sub i64 %retval.0.i, %offset
  %add = add i64 %sub, %size
  %call8 = tail call ptr @_mi_os_alloc_aligned(i64 noundef %add, i64 noundef %alignment, i1 noundef zeroext %commit, i1 noundef zeroext %allow_large, ptr noundef nonnull %memid, ptr poison) #8
  %cmp9 = icmp eq ptr %call8, null
  br i1 %cmp9, label %return, label %if.end11

if.end11:                                         ; preds = %_mi_align_up.exit
  %add.ptr = getelementptr inbounds i8, ptr %call8, i64 %sub
  %2 = load i64, ptr @mi_os_mem_config, align 8
  %cmp14 = icmp ugt i64 %sub, %2
  %or.cond = select i1 %commit, i1 %cmp14, i1 false
  br i1 %or.cond, label %if.end4.i.i.i.i, label %return

if.end4.i.i.i.i:                                  ; preds = %if.end11
  call void @llvm.lifetime.start.p0(i64 1, ptr nonnull %needs_recommit.i)
  tail call void @_mi_stat_decrease(ptr noundef nonnull getelementptr inbounds nuw (i8, ptr @_mi_stats_main, i64 96), i64 noundef %sub) #7
  %3 = load i64, ptr @mi_os_mem_config, align 8
  %4 = ptrtoint ptr %call8 to i64
  %5 = tail call range(i64 0, 65) i64 @llvm.ctpop.i64(i64 %3)
  %cmp.i.i.i.i.i.i = icmp samesign ult i64 %5, 2
  %sub.i.i.i.i.i.i = add i64 %4, -1
  %add.i.i.i.i.i.i = add i64 %sub.i.i.i.i.i.i, %3
  %6 = ptrtoint ptr %add.ptr to i64
  br i1 %cmp.i.i.i.i.i.i, label %if.then.i.i24.i.i.i.i, label %if.else.i.i21.i.i.i.i

if.then.i.i24.i.i.i.i:                            ; preds = %if.end4.i.i.i.i
  %not.i.i.i.i.i.i = sub i64 0, %3
  %and1.i.i.i.i.i.i = and i64 %add.i.i.i.i.i.i, %not.i.i.i.i.i.i
  %and1.i.i26.i.i.i.i = and i64 %not.i.i.i.i.i.i, %6
  br label %cond.end16.i.i.i.i

if.else.i.i21.i.i.i.i:                            ; preds = %if.end4.i.i.i.i
  %7 = urem i64 %add.i.i.i.i.i.i, %3
  %mul.i.i.i.i.i.i = sub nuw i64 %add.i.i.i.i.i.i, %7
  %8 = urem i64 %6, %3
  %mul.i.i22.i.i.i.i = sub nuw i64 %6, %8
  br label %cond.end16.i.i.i.i

cond.end16.i.i.i.i:                               ; preds = %if.else.i.i21.i.i.i.i, %if.then.i.i24.i.i.i.i
  %cond39.in.i.i.i.i = phi i64 [ %and1.i.i.i.i.i.i, %if.then.i.i24.i.i.i.i ], [ %mul.i.i.i.i.i.i, %if.else.i.i21.i.i.i.i ]
  %cond17.in.i.i.i.i = phi i64 [ %and1.i.i26.i.i.i.i, %if.then.i.i24.i.i.i.i ], [ %mul.i.i22.i.i.i.i, %if.else.i.i21.i.i.i.i ]
  %sub.ptr.sub.i.i.i.i = sub i64 %cond17.in.i.i.i.i, %cond39.in.i.i.i.i
  %cmp18.i.i.i.i = icmp slt i64 %sub.ptr.sub.i.i.i.i, 1
  br i1 %cmp18.i.i.i.i, label %_mi_os_decommit.exit, label %if.end.i.i

if.end.i.i:                                       ; preds = %cond.end16.i.i.i.i
  %cond39.i.i.i.i = inttoptr i64 %cond39.in.i.i.i.i to ptr
  store i8 1, ptr %needs_recommit.i, align 1
  %call1.i.i = call i32 @_mi_prim_decommit(ptr noundef %cond39.i.i.i.i, i64 noundef %sub.ptr.sub.i.i.i.i, ptr noundef nonnull %needs_recommit.i) #7
  %cmp2.not.i.i = icmp eq i32 %call1.i.i, 0
  br i1 %cmp2.not.i.i, label %_mi_os_decommit.exit, label %if.then3.i.i

if.then3.i.i:                                     ; preds = %if.end.i.i
  call void (ptr, ...) @_mi_warning_message(ptr noundef nonnull @.str.9, i32 noundef %call1.i.i, i32 noundef %call1.i.i, ptr noundef %cond39.i.i.i.i, i64 noundef %sub.ptr.sub.i.i.i.i) #7
  br label %_mi_os_decommit.exit

_mi_os_decommit.exit:                             ; preds = %cond.end16.i.i.i.i, %if.end.i.i, %if.then3.i.i
  call void @llvm.lifetime.end.p0(i64 1, ptr nonnull %needs_recommit.i)
  br label %return

return:                                           ; preds = %if.end11, %_mi_os_decommit.exit, %_mi_align_up.exit, %entry, %if.then3
  %retval.0 = phi ptr [ %call, %if.then3 ], [ null, %entry ], [ null, %_mi_align_up.exit ], [ %add.ptr, %_mi_os_decommit.exit ], [ %add.ptr, %if.end11 ]
  ret ptr %retval.0
}